; Function Attrs: nounwind uwtable
define noalias noundef ptr @Abc_CutFactor(ptr noundef readonly captures(none) %0) local_unnamed_addr #0 {
  %2 = tail call noalias dereferenceable_or_null(16) ptr @malloc(i64 noundef 16) #20
  %3 = getelementptr inbounds nuw i8, ptr %2, i64 4
  store i32 0, ptr %3, align 4, !tbaa !32
  store i32 10, ptr %2, align 8, !tbaa !34
  %4 = tail call noalias dereferenceable_or_null(80) ptr @malloc(i64 noundef 80) #20
  %5 = getelementptr inbounds nuw i8, ptr %2, i64 8
  store ptr %4, ptr %5, align 8, !tbaa !35
  %.val11 = load ptr, ptr %0, align 8, !tbaa !73
  %6 = getelementptr i8, ptr %0, i64 32
  %.val12 = load ptr, ptr %6, align 8, !tbaa !84
  %7 = getelementptr i8, ptr %.val11, i64 32
  %.val11.val = load ptr, ptr %7, align 8, !tbaa !62
  %.val12.val = load i32, ptr %.val12, align 4, !tbaa !45
  %8 = getelementptr i8, ptr %.val11.val, i64 8
  %.val11.val.val = load ptr, ptr %8, align 8, !tbaa !35
  %9 = sext i32 %.val12.val to i64
  %10 = getelementptr inbounds ptr, ptr %.val11.val.val, i64 %9
  %11 = load ptr, ptr %10, align 8, !tbaa !41
  tail call void @Abc_CutFactor_rec(ptr noundef %11, ptr noundef nonnull %2)
  %.val13 = load ptr, ptr %0, align 8, !tbaa !73
  %.val14 = load ptr, ptr %6, align 8, !tbaa !84
  %12 = getelementptr i8, ptr %.val13, i64 32
  %.val13.val = load ptr, ptr %12, align 8, !tbaa !62
  %13 = getelementptr i8, ptr %.val14, i64 4
  %.val14.val = load i32, ptr %13, align 4, !tbaa !45
  %14 = getelementptr i8, ptr %.val13.val, i64 8
  %.val13.val.val = load ptr, ptr %14, align 8, !tbaa !35
  %15 = sext i32 %.val14.val to i64
  %16 = getelementptr inbounds ptr, ptr %.val13.val.val, i64 %15
  %17 = load ptr, ptr %16, align 8, !tbaa !41
  tail call void @Abc_CutFactor_rec(ptr noundef %17, ptr noundef nonnull %2)
  %.val = load i32, ptr %3, align 4, !tbaa !32
  %18 = icmp sgt i32 %.val, 0
  br i1 %18, label %.lr.ph, label %.critedge

.lr.ph:                                           ; preds = %1
  %.val10 = load ptr, ptr %5, align 8, !tbaa !35
  %wide.trip.count = zext nneg i32 %.val to i64
  br label %19

19:                                               ; preds = %.lr.ph, %19
  %indvars.iv = phi i64 [ 0, %.lr.ph ], [ %indvars.iv.next, %19 ]
  %20 = getelementptr inbounds nuw ptr, ptr %.val10, i64 %indvars.iv
  %21 = load ptr, ptr %20, align 8, !tbaa !41
  %22 = getelementptr inbounds nuw i8, ptr %21, i64 20
  %23 = load i32, ptr %22, align 4
  %24 = and i32 %23, -17
  store i32 %24, ptr %22, align 4
  %indvars.iv.next = add nuw nsw i64 %indvars.iv, 1
  %exitcond.not = icmp eq i64 %indvars.iv.next, %wide.trip.count
  br i1 %exitcond.not, label %.critedge, label %19, !llvm.loop !151

.critedge:                                        ; preds = %19, %1
  ret ptr %2
}